; Function Attrs: nounwind ssp uwtable
define dso_local noundef i32 @crypto_secretstream_xchacha20poly1305_init_push(ptr noundef nonnull %0, ptr noundef nonnull %1, ptr noundef nonnull %2) local_unnamed_addr #0 {
  tail call void @randombytes_buf(ptr noundef nonnull %1, i64 noundef 24) #7
  %4 = tail call i32 @crypto_core_hchacha20(ptr noundef nonnull %0, ptr noundef nonnull %1, ptr noundef nonnull %2, ptr noundef null) #7
  %5 = getelementptr inbounds nuw i8, ptr %0, i64 32
  store i32 0, ptr %5, align 1
  store i8 1, ptr %5, align 1
  %6 = getelementptr i8, ptr %0, i64 36
  %7 = getelementptr i8, ptr %1, i64 16
  %8 = load i64, ptr %7, align 1
  store i64 %8, ptr %6, align 1
  %9 = getelementptr inbounds nuw i8, ptr %0, i64 44
  store i64 0, ptr %9, align 1
  ret i32 0
}